; Function Attrs: mustprogress uwtable
define hidden void @_ZN6Assimp11MDLImporter9SizeCheckEPKv(ptr nocapture noundef nonnull readonly align 8 dereferenceable(158) %this, ptr noundef readnone %szPos) local_unnamed_addr #2 align 2 personality ptr @__gxx_personality_v0 {
entry:
  %tobool.not.i = icmp eq ptr %szPos, null
  br i1 %tobool.not.i, label %if.then, label %_ZNK6Assimp11MDLImporter10IsPosValidEPKv.exit

_ZNK6Assimp11MDLImporter10IsPosValidEPKv.exit:    ; preds = %entry
  %mBuffer.i = getelementptr inbounds i8, ptr %this, i64 112
  %0 = load ptr, ptr %mBuffer.i, align 8
  %iFileSize.i = getelementptr inbounds i8, ptr %this, i64 144
  %1 = load i32, ptr %iFileSize.i, align 8
  %idx.ext.i = zext i32 %1 to i64
  %add.ptr.i = getelementptr inbounds i8, ptr %0, i64 %idx.ext.i
  %cmp.not.i = icmp uge ptr %add.ptr.i, %szPos
  %cmp3.i = icmp ule ptr %0, %szPos
  %spec.select.i = and i1 %cmp3.i, %cmp.not.i
  br i1 %spec.select.i, label %if.end, label %if.then

if.then:                                          ; preds = %entry, %_ZNK6Assimp11MDLImporter10IsPosValidEPKv.exit
  %exception = tail call ptr @__cxa_allocate_exception(i64 16) #24
  invoke void @_ZN17DeadlyImportErrorC2EPKc(ptr noundef nonnull align 8 dereferenceable(16) %exception, ptr noundef nonnull @.str.43)
          to label %invoke.cont unwind label %lpad

invoke.cont:                                      ; preds = %if.then
  tail call void @__cxa_throw(ptr nonnull %exception, ptr nonnull @_ZTI17DeadlyImportError, ptr nonnull @_ZN17DeadlyImportErrorD2Ev) #25
  unreachable

lpad:                                             ; preds = %if.then
  %2 = landingpad { ptr, i32 }
          cleanup
  tail call void @__cxa_free_exception(ptr %exception) #24
  resume { ptr, i32 } %2

if.end:                                           ; preds = %_ZNK6Assimp11MDLImporter10IsPosValidEPKv.exit
  ret void
}